; Function Attrs: null_pointer_is_valid sspstrong uwtable
define noundef ptr @tvb_child_uncompress(ptr noundef %0, ptr noundef %1, i32 noundef %2, i32 noundef %3) local_unnamed_addr #0 {
  %5 = tail call ptr @tvb_uncompress_zlib(ptr noundef %1, i32 noundef %2, i32 noundef %3)
  %.not.i = icmp eq ptr %5, null
  br i1 %.not.i, label %tvb_child_uncompress_zlib.exit, label %6

6:                                                ; preds = %4
  tail call void @tvb_set_child_real_data_tvbuff(ptr noundef %0, ptr noundef nonnull %5)
  br label %tvb_child_uncompress_zlib.exit

tvb_child_uncompress_zlib.exit:                   ; preds = %4, %6
  ret ptr %5
}